target datalayout = "e-m:e-p270:32:32-p271:32:32-p272:64:64-i64:64-i128:128-f80:128-n8:16:32:64-S128"
target triple = "x86_64-pc-linux-gnu"

%struct._object = type { %union.anon, ptr }
%union.anon = type { i64 }
%struct._curses_panel_state = type { ptr, ptr }
%struct.anon = type { i32, i32 }

@PyCurses_API = internal global ptr null, align 8
@.str.10 = private unnamed_addr constant [15 x i8] c"_curses._C_API\00", align 1
@.str.11 = private unnamed_addr constant [20 x i8] c"_curses_panel.error\00", align 1
@.str.12 = private unnamed_addr constant [6 x i8] c"error\00", align 1
@PyCursesVersion = internal constant [4 x i8] c"2.1\00", align 1
@.str.13 = private unnamed_addr constant [8 x i8] c"version\00", align 1
@.str.14 = private unnamed_addr constant [12 x i8] c"__version__\00", align 1
@PyCursesPanel_Type_spec = internal global { ptr, i32, i32, i32, [4 x i8], ptr } { ptr @.str.15, i32 32, i32 0, i32 128, [4 x i8] zeroinitializer, ptr @PyCursesPanel_Type_slots }, align 8

; Function Attrs: alwaysinline nounwind uwtable
define internal i32 @_Py_IsImmortal(ptr noundef %0) #4 {
  %2 = alloca ptr, align 8
  store ptr %0, ptr %2, align 8, !tbaa !3
  %3 = load ptr, ptr %2, align 8, !tbaa !3
  %4 = getelementptr inbounds nuw %struct._object, ptr %3, i32 0, i32 0
  %5 = getelementptr inbounds nuw %struct.anon, ptr %4, i32 0, i32 0
  %6 = load i32, ptr %5, align 8, !tbaa !41
  %7 = icmp slt i32 %6, 0
  %8 = zext i1 %7 to i32
  ret i32 %8
}

; Function Attrs: alwaysinline nounwind uwtable
define internal void @Py_DECREF(ptr noundef %0) #4 {
  %2 = alloca ptr, align 8
  store ptr %0, ptr %2, align 8, !tbaa !3
  %3 = load ptr, ptr %2, align 8, !tbaa !3
  %4 = call i32 @_Py_IsImmortal(ptr noundef %3)
  %5 = icmp ne i32 %4, 0
  br i1 %5, label %6, label %7

6:                                                ; preds = %1
  br label %16

7:                                                ; preds = %1
  %8 = load ptr, ptr %2, align 8, !tbaa !3
  %9 = getelementptr inbounds nuw %struct._object, ptr %8, i32 0, i32 0
  %10 = getelementptr inbounds nuw %struct.anon, ptr %9, i32 0, i32 0
  %11 = load i32, ptr %10, align 8, !tbaa !41
  %12 = add i32 %11, -1
  store i32 %12, ptr %10, align 8, !tbaa !41
  %13 = icmp eq i32 %12, 0
  br i1 %13, label %14, label %16

14:                                               ; preds = %7
  %15 = load ptr, ptr %2, align 8, !tbaa !3
  call void @_Py_Dealloc(ptr noundef %15)
  br label %16

16:                                               ; preds = %6, %14, %7
  ret void
}

; Function Attrs: inlinehint nounwind uwtable
define internal ptr @get_curses_panel_state(ptr noundef %0) #3 {
  %2 = alloca ptr, align 8
  %3 = alloca ptr, align 8
  store ptr %0, ptr %2, align 8, !tbaa !3
  call void @llvm.lifetime.start.p0(i64 8, ptr %3) #5
  %4 = load ptr, ptr %2, align 8, !tbaa !3
  %5 = call ptr @PyModule_GetState(ptr noundef %4)
  store ptr %5, ptr %3, align 8, !tbaa !8
  %6 = load ptr, ptr %3, align 8, !tbaa !8
  call void @llvm.lifetime.end.p0(i64 8, ptr %3) #5
  ret ptr %6
}

; Function Attrs: nounwind uwtable
define internal i32 @_curses_panel_exec(ptr noundef %0) #0 {
  %2 = alloca i32, align 4
  %3 = alloca ptr, align 8
  %4 = alloca ptr, align 8
  %5 = alloca i32, align 4
  %6 = alloca ptr, align 8
  %7 = alloca ptr, align 8
  store ptr %0, ptr %3, align 8, !tbaa !3
  call void @llvm.lifetime.start.p0(i64 8, ptr %4) #5
  %8 = load ptr, ptr %3, align 8, !tbaa !3
  %9 = call ptr @get_curses_panel_state(ptr noundef %8)
  store ptr %9, ptr %4, align 8, !tbaa !8
  %10 = load ptr, ptr %3, align 8, !tbaa !3
  %11 = call ptr @PyType_FromModuleAndSpec(ptr noundef %10, ptr noundef @PyCursesPanel_Type_spec, ptr noundef null)
  %12 = load ptr, ptr %4, align 8, !tbaa !8
  %13 = getelementptr inbounds nuw %struct._curses_panel_state, ptr %12, i32 0, i32 1
  store ptr %11, ptr %13, align 8, !tbaa !14
  %14 = load ptr, ptr %4, align 8, !tbaa !8
  %15 = getelementptr inbounds nuw %struct._curses_panel_state, ptr %14, i32 0, i32 1
  %16 = load ptr, ptr %15, align 8, !tbaa !14
  %17 = icmp eq ptr %16, null
  br i1 %17, label %18, label %19

18:                                               ; preds = %1
  store i32 -1, ptr %2, align 4
  store i32 1, ptr %5, align 4
  br label %68

19:                                               ; preds = %1
  %20 = load ptr, ptr %3, align 8, !tbaa !3
  %21 = load ptr, ptr %4, align 8, !tbaa !8
  %22 = getelementptr inbounds nuw %struct._curses_panel_state, ptr %21, i32 0, i32 1
  %23 = load ptr, ptr %22, align 8, !tbaa !14
  %24 = call i32 @PyModule_AddType(ptr noundef %20, ptr noundef %23)
  %25 = icmp slt i32 %24, 0
  br i1 %25, label %26, label %27

26:                                               ; preds = %19
  store i32 -1, ptr %2, align 4
  store i32 1, ptr %5, align 4
  br label %68

27:                                               ; preds = %19
  %28 = call ptr @PyCapsule_Import(ptr noundef @.str.10, i32 noundef 1)
  store ptr %28, ptr @PyCurses_API, align 8, !tbaa !8
  %29 = call ptr @PyErr_Occurred()
  %30 = icmp ne ptr %29, null
  br i1 %30, label %31, label %32

31:                                               ; preds = %27
  store i32 -1, ptr %2, align 4
  store i32 1, ptr %5, align 4
  br label %68

32:                                               ; preds = %27
  %33 = call ptr @PyErr_NewException(ptr noundef @.str.11, ptr noundef null, ptr noundef null)
  %34 = load ptr, ptr %4, align 8, !tbaa !8
  %35 = getelementptr inbounds nuw %struct._curses_panel_state, ptr %34, i32 0, i32 0
  store ptr %33, ptr %35, align 8, !tbaa !11
  %36 = load ptr, ptr %3, align 8, !tbaa !3
  %37 = load ptr, ptr %4, align 8, !tbaa !8
  %38 = getelementptr inbounds nuw %struct._curses_panel_state, ptr %37, i32 0, i32 0
  %39 = load ptr, ptr %38, align 8, !tbaa !11
  %40 = call i32 @PyModule_AddObjectRef(ptr noundef %36, ptr noundef @.str.12, ptr noundef %39)
  %41 = icmp slt i32 %40, 0
  br i1 %41, label %42, label %43

42:                                               ; preds = %32
  store i32 -1, ptr %2, align 4
  store i32 1, ptr %5, align 4
  br label %68

43:                                               ; preds = %32
  call void @llvm.lifetime.start.p0(i64 8, ptr %6) #5
  %44 = call ptr @PyUnicode_FromString(ptr noundef @PyCursesVersion)
  store ptr %44, ptr %6, align 8, !tbaa !3
  %45 = load ptr, ptr %6, align 8, !tbaa !3
  %46 = icmp eq ptr %45, null
  br i1 %46, label %47, label %48

47:                                               ; preds = %43
  store i32 -1, ptr %2, align 4
  store i32 1, ptr %5, align 4
  br label %67

48:                                               ; preds = %43
  call void @llvm.lifetime.start.p0(i64 8, ptr %7) #5
  %49 = load ptr, ptr %3, align 8, !tbaa !3
  %50 = call ptr @PyModule_GetDict(ptr noundef %49)
  store ptr %50, ptr %7, align 8, !tbaa !3
  %51 = load ptr, ptr %7, align 8, !tbaa !3
  %52 = load ptr, ptr %6, align 8, !tbaa !3
  %53 = call i32 @PyDict_SetItemString(ptr noundef %51, ptr noundef @.str.13, ptr noundef %52)
  %54 = icmp slt i32 %53, 0
  br i1 %54, label %55, label %57

55:                                               ; preds = %48
  %56 = load ptr, ptr %6, align 8, !tbaa !3
  call void @Py_DECREF(ptr noundef %56)
  store i32 -1, ptr %2, align 4
  store i32 1, ptr %5, align 4
  br label %66

57:                                               ; preds = %48
  %58 = load ptr, ptr %7, align 8, !tbaa !3
  %59 = load ptr, ptr %6, align 8, !tbaa !3
  %60 = call i32 @PyDict_SetItemString(ptr noundef %58, ptr noundef @.str.14, ptr noundef %59)
  %61 = icmp slt i32 %60, 0
  br i1 %61, label %62, label %64

62:                                               ; preds = %57
  %63 = load ptr, ptr %6, align 8, !tbaa !3
  call void @Py_DECREF(ptr noundef %63)
  store i32 -1, ptr %2, align 4
  store i32 1, ptr %5, align 4
  br label %66

64:                                               ; preds = %57
  %65 = load ptr, ptr %6, align 8, !tbaa !3
  call void @Py_DECREF(ptr noundef %65)
  store i32 0, ptr %2, align 4
  store i32 1, ptr %5, align 4
  br label %66

66:                                               ; preds = %64, %62, %55
  call void @llvm.lifetime.end.p0(i64 8, ptr %7) #5
  br label %67

67:                                               ; preds = %66, %47
  call void @llvm.lifetime.end.p0(i64 8, ptr %6) #5
  br label %68

68:                                               ; preds = %67, %42, %31, %26, %18
  call void @llvm.lifetime.end.p0(i64 8, ptr %4) #5
  %69 = load i32, ptr %2, align 4
  ret i32 %69
}