; Function Attrs: nounwind uwtable
define internal range(i32 -1, 1) i32 @_curses_panel_exec(ptr noundef %0) #0 {
  %2 = tail call ptr @PyModule_GetState(ptr noundef %0) #4
  %3 = tail call ptr @PyType_FromModuleAndSpec(ptr noundef %0, ptr noundef nonnull @PyCursesPanel_Type_spec, ptr noundef null) #4
  %4 = getelementptr inbounds nuw i8, ptr %2, i64 8
  store ptr %3, ptr %4, align 8, !tbaa !12
  %5 = icmp eq ptr %3, null
  br i1 %5, label %Py_DECREF.exit21, label %6

6:                                                ; preds = %1
  %7 = tail call i32 @PyModule_AddType(ptr noundef %0, ptr noundef nonnull %3) #4
  %8 = icmp slt i32 %7, 0
  br i1 %8, label %Py_DECREF.exit21, label %9

9:                                                ; preds = %6
  %10 = tail call ptr @PyCapsule_Import(ptr noundef nonnull @.str.10, i32 noundef 1) #4
  store ptr %10, ptr @PyCurses_API, align 8, !tbaa !16
  %11 = tail call ptr @PyErr_Occurred() #4
  %.not = icmp eq ptr %11, null
  br i1 %.not, label %12, label %Py_DECREF.exit21

12:                                               ; preds = %9
  %13 = tail call ptr @PyErr_NewException(ptr noundef nonnull @.str.11, ptr noundef null, ptr noundef null) #4
  store ptr %13, ptr %2, align 8, !tbaa !9
  %14 = tail call i32 @PyModule_AddObjectRef(ptr noundef %0, ptr noundef nonnull @.str.12, ptr noundef %13) #4
  %15 = icmp slt i32 %14, 0
  br i1 %15, label %Py_DECREF.exit21, label %16

16:                                               ; preds = %12
  %17 = tail call ptr @PyUnicode_FromString(ptr noundef nonnull @PyCursesVersion) #4
  %18 = icmp eq ptr %17, null
  br i1 %18, label %Py_DECREF.exit21, label %19

19:                                               ; preds = %16
  %20 = tail call ptr @PyModule_GetDict(ptr noundef %0) #4
  %21 = tail call i32 @PyDict_SetItemString(ptr noundef %20, ptr noundef nonnull @.str.13, ptr noundef nonnull %17) #4
  %22 = icmp slt i32 %21, 0
  br i1 %22, label %23, label %29

23:                                               ; preds = %19
  %24 = load i32, ptr %17, align 8, !tbaa !14
  %.not.i20 = icmp sgt i32 %24, -1
  br i1 %.not.i20, label %25, label %Py_DECREF.exit21

25:                                               ; preds = %23
  %26 = add nsw i32 %24, -1
  store i32 %26, ptr %17, align 8, !tbaa !14
  %27 = icmp eq i32 %26, 0
  br i1 %27, label %28, label %Py_DECREF.exit21

28:                                               ; preds = %25
  tail call void @_Py_Dealloc(ptr noundef nonnull %17) #4
  br label %Py_DECREF.exit21

29:                                               ; preds = %19
  %30 = tail call i32 @PyDict_SetItemString(ptr noundef %20, ptr noundef nonnull @.str.14, ptr noundef nonnull %17) #4
  %31 = load i32, ptr %17, align 8, !tbaa !14
  %.not.i = icmp sgt i32 %31, -1
  br i1 %.not.i, label %32, label %Py_DECREF.exit

32:                                               ; preds = %29
  %33 = add nsw i32 %31, -1
  store i32 %33, ptr %17, align 8, !tbaa !14
  %34 = icmp eq i32 %33, 0
  br i1 %34, label %35, label %Py_DECREF.exit

35:                                               ; preds = %32
  tail call void @_Py_Dealloc(ptr noundef nonnull %17) #4
  br label %Py_DECREF.exit

Py_DECREF.exit:                                   ; preds = %29, %32, %35
  %.lobit = ashr i32 %30, 31
  br label %Py_DECREF.exit21

Py_DECREF.exit21:                                 ; preds = %28, %25, %23, %16, %Py_DECREF.exit, %12, %9, %6, %1
  %.0 = phi i32 [ -1, %1 ], [ -1, %6 ], [ -1, %9 ], [ -1, %12 ], [ -1, %16 ], [ %.lobit, %Py_DECREF.exit ], [ -1, %23 ], [ -1, %25 ], [ -1, %28 ]
  ret i32 %.0
}